; Function Attrs: mustprogress nofree norecurse nosync nounwind willreturn memory(argmem: write) uwtable
define noundef i32 @_ZN12duckdb_miniz10tdefl_initEPNS_16tdefl_compressorEPFiPKviPvES4_i(ptr noundef initializes((0, 32), (36, 48), (84, 100), (112, 132)) %0, ptr noundef %1, ptr noundef %2, i32 noundef %3) local_unnamed_addr #9 {
  store ptr %1, ptr %0, align 8, !tbaa !46
  %5 = getelementptr inbounds nuw i8, ptr %0, i64 8
  store ptr %2, ptr %5, align 8, !tbaa !47
  %6 = getelementptr inbounds nuw i8, ptr %0, i64 16
  store i32 %3, ptr %6, align 8, !tbaa !27
  %7 = and i32 %3, 4095
  %8 = trunc nuw nsw i32 %7 to i16
  %.lhs.trunc = add nuw nsw i16 %8, 2
  %9 = udiv i16 %.lhs.trunc, 3
  %narrow = add nuw nsw i16 %9, 1
  %10 = zext nneg i16 %narrow to i32
  %11 = getelementptr inbounds nuw i8, ptr %0, i64 20
  store i32 %10, ptr %11, align 4, !tbaa !10
  %12 = lshr i32 %3, 14
  %.lobit = and i32 %12, 1
  %13 = getelementptr inbounds nuw i8, ptr %0, i64 28
  store i32 %.lobit, ptr %13, align 4, !tbaa !32
  %14 = lshr i32 %7, 2
  %15 = trunc nuw nsw i32 %14 to i16
  %.lhs.trunc51 = add nuw nsw i16 %15, 2
  %16 = udiv i16 %.lhs.trunc51, 3
  %narrow53 = add nuw nsw i16 %16, 1
  %17 = zext nneg i16 %narrow53 to i32
  %18 = getelementptr inbounds nuw i8, ptr %0, i64 24
  store i32 %17, ptr %18, align 4, !tbaa !10
  %19 = and i32 %3, 32768
  %.not = icmp eq i32 %19, 0
  br i1 %.not, label %20, label %22

20:                                               ; preds = %4
  %21 = getelementptr inbounds nuw i8, ptr %0, i64 168618
  tail call void @llvm.memset.p0.i64(ptr noundef nonnull align 2 dereferenceable(65536) %21, i8 0, i64 65536, i1 false)
  br label %22

22:                                               ; preds = %20, %4
  %23 = getelementptr inbounds nuw i8, ptr %0, i64 84
  %24 = getelementptr inbounds nuw i8, ptr %0, i64 44
  store i32 0, ptr %24, align 4, !tbaa !33
  %25 = getelementptr inbounds nuw i8, ptr %0, i64 40
  store i32 0, ptr %25, align 8, !tbaa !34
  %26 = getelementptr inbounds nuw i8, ptr %0, i64 36
  store i32 0, ptr %26, align 4, !tbaa !35
  %27 = getelementptr inbounds nuw i8, ptr %0, i64 112
  %28 = getelementptr inbounds nuw i8, ptr %0, i64 37546
  %29 = getelementptr inbounds nuw i8, ptr %0, i64 37547
  %30 = getelementptr inbounds nuw i8, ptr %0, i64 48
  tail call void @llvm.memset.p0.i64(ptr noundef nonnull align 4 dereferenceable(16) %23, i8 0, i64 16, i1 false)
  tail call void @llvm.memset.p0.i64(ptr noundef nonnull align 8 dereferenceable(20) %27, i8 0, i64 20, i1 false)
  store ptr %29, ptr %30, align 8, !tbaa !36
  %31 = getelementptr inbounds nuw i8, ptr %0, i64 56
  store ptr %28, ptr %31, align 8, !tbaa !37
  %32 = getelementptr inbounds nuw i8, ptr %0, i64 80
  store i32 8, ptr %32, align 8, !tbaa !38
  %33 = getelementptr inbounds nuw i8, ptr %0, i64 234154
  %34 = getelementptr inbounds nuw i8, ptr %0, i64 64
  store ptr %33, ptr %34, align 8, !tbaa !39
  %35 = getelementptr inbounds nuw i8, ptr %0, i64 72
  store ptr %33, ptr %35, align 8, !tbaa !40
  %36 = getelementptr inbounds nuw i8, ptr %0, i64 132
  store i32 0, ptr %36, align 4, !tbaa !41
  %37 = getelementptr inbounds nuw i8, ptr %0, i64 108
  store i32 0, ptr %37, align 4, !tbaa !42
  %38 = getelementptr inbounds nuw i8, ptr %0, i64 104
  store i32 0, ptr %38, align 8, !tbaa !43
  %39 = getelementptr inbounds nuw i8, ptr %0, i64 100
  store i32 0, ptr %39, align 4, !tbaa !44
  %40 = getelementptr inbounds nuw i8, ptr %0, i64 32
  store i32 1, ptr %40, align 8, !tbaa !45
  %41 = getelementptr inbounds nuw i8, ptr %0, i64 136
  %42 = getelementptr inbounds nuw i8, ptr %0, i64 176
  tail call void @llvm.memset.p0.i64(ptr noundef nonnull align 8 dereferenceable(36) %41, i8 0, i64 36, i1 false)
  tail call void @llvm.memset.p0.i64(ptr noundef nonnull align 8 dereferenceable(24) %42, i8 0, i64 24, i1 false)
  br i1 %.not, label %43, label %45

43:                                               ; preds = %22
  %44 = getelementptr inbounds nuw i8, ptr %0, i64 200
  tail call void @llvm.memset.p0.i64(ptr noundef nonnull align 8 dereferenceable(33025) %44, i8 0, i64 33025, i1 false)
  br label %45

45:                                               ; preds = %43, %22
  %46 = getelementptr inbounds nuw i8, ptr %0, i64 33226
  tail call void @llvm.memset.p0.i64(ptr noundef nonnull align 2 dereferenceable(640) %46, i8 0, i64 640, i1 false)
  ret i32 0
}